Certificate:
    Data:
        Version: 3 (0x2)
        Serial Number:
            d8:8f:9f:11:01:4d:34:da
    Signature Algorithm: sha256WithRSAEncryption
        Issuer: O = Cyrus, CN = Cunit Test CA, emailAddress = ellie@fastmail.com
        Validity
            Not Before: May  6 00:39:56 2020 GMT
            Not After : May  4 00:39:56 2030 GMT
        Subject: O = Cyrus, CN = Cunit Test CA, emailAddress = ellie@fastmail.com
        Subject Public Key Info:
            Public Key Algorithm: rsaEncryption
                Public-Key: (4096 bit)
                Modulus:
                    00:ad:93:cc:8d:90:4b:d7:7d:2e:e4:8e:2a:d4:6e:
                    0c:31:cc:f3:0a:f0:01:be:6d:24:c8:c4:c7:9a:8a:
                    c5:0e:05:6a:86:62:14:b9:94:43:28:2d:43:ba:e2:
                    9e:ab:e5:81:be:b5:93:fc:0b:c8:eb:f0:43:0a:74:
                    9a:4d:67:69:86:0a:71:50:ac:fa:d4:6c:0a:fb:76:
                    0a:28:bd:51:50:0b:8b:a6:38:6e:b5:a6:c3:78:33:
                    89:32:cb:9a:0a:6b:03:82:5e:a3:1f:ad:0a:18:77:
                    3e:8b:2a:88:32:d6:03:fc:96:d8:82:cc:f4:65:89:
                    ea:d8:ea:a6:65:21:e8:26:7b:46:05:2a:a3:d9:1d:
                    68:e9:18:ee:e5:77:92:20:74:da:e7:42:24:35:e5:
                    6b:63:b6:80:fa:dc:9e:42:80:ae:2d:3f:71:03:64:
                    6a:b8:2a:1d:bf:f9:0e:33:f1:88:8a:a1:51:fe:62:
                    0a:9b:5c:0c:9d:2a:c4:75:98:fe:40:32:d2:19:bf:
                    3f:27:ec:15:06:87:62:e0:de:dd:85:5b:46:1d:b0:
                    b1:1f:90:4e:e7:38:5d:b9:00:7d:95:bb:da:fb:2a:
                    03:ef:4e:2f:b0:44:8a:92:eb:09:82:38:52:8c:8a:
                    b7:70:14:f8:61:36:2c:da:81:08:ba:37:ea:bc:ba:
                    99:4f:51:3e:6d:d3:01:a4:c4:7e:6c:47:8f:f3:47:
                    9c:eb:16:a1:c3:f7:23:b8:35:98:a4:69:a2:02:c4:
                    35:ad:8a:3a:8c:55:01:74:a4:45:20:99:db:de:dc:
                    d2:6a:42:bb:16:5e:c4:47:e7:4f:95:ab:49:4a:64:
                    91:3b:97:d2:6e:92:92:ad:14:00:78:4c:e5:3e:bc:
                    3d:36:c3:0c:2a:e9:dc:bd:83:27:d3:83:47:33:95:
                    85:dc:34:2f:b9:de:e9:b0:46:c0:b5:26:5c:52:87:
                    7d:cd:57:7c:04:dd:ce:01:20:a5:3d:9b:77:65:31:
                    44:bb:c4:81:78:1e:63:59:14:9f:1c:3f:70:18:18:
                    87:94:79:b2:a3:e7:da:96:ee:38:88:55:0c:ae:ef:
                    a0:75:c9:e7:4f:89:c8:09:a9:8f:eb:9a:00:c9:ae:
                    ba:dd:2e:c3:e6:3a:bc:13:f0:d7:8a:2f:43:e4:d5:
                    ed:70:6a:b3:2c:70:13:e4:1b:02:e8:e5:cf:a3:3d:
                    96:a7:f3:3b:86:5e:c4:dc:dc:e3:f5:90:ca:c9:0e:
                    ee:08:cf:ac:4f:81:f1:5e:46:94:d7:b2:3c:de:3e:
                    0b:e5:e4:c5:28:d5:1e:04:e1:8d:c5:4b:d0:62:c4:
                    3d:46:1d:6d:27:5a:4f:f4:8f:9b:1c:bc:cd:e3:2b:
                    8d:bb:21
                Exponent: 65537 (0x10001)
        X509v3 extensions:
            X509v3 Subject Key Identifier: 
                39:6F:8D:DF:ED:88:34:6D:F3:C3:9A:AC:4A:B5:49:43:AB:74:AB:0A
            X509v3 Authority Key Identifier: 
                keyid:39:6F:8D:DF:ED:88:34:6D:F3:C3:9A:AC:4A:B5:49:43:AB:74:AB:0A

            X509v3 Basic Constraints: critical
                CA:TRUE
    Signature Algorithm: sha256WithRSAEncryption
         0f:25:56:f2:34:9a:3c:bc:37:6c:79:36:70:f5:6b:9b:d9:b6:
         58:eb:1e:ba:f9:08:d7:15:59:db:3c:aa:85:c4:54:6b:81:2a:
         15:fe:24:91:48:66:b4:23:bf:b9:ee:12:ac:19:f0:84:35:d4:
         f4:99:b6:90:0a:67:54:22:40:ea:91:e7:97:75:96:b9:40:4f:
         d0:b1:6a:07:24:b0:23:66:07:0c:4b:70:24:38:6c:bd:64:3c:
         e2:a7:2a:5c:00:e6:cc:51:95:2c:54:c3:d1:8a:82:96:8e:82:
         75:80:52:cb:2b:e0:b5:bc:a3:d2:55:3c:9b:f8:c6:17:0c:a2:
         d5:e7:a9:32:ba:e7:5e:ab:00:a2:4b:85:52:3e:15:95:3c:84:
         a2:d9:8e:02:96:7e:c9:45:00:da:e0:b0:d9:c2:9a:9a:1c:18:
         aa:4f:b6:29:02:d9:39:44:19:a6:f5:51:c9:15:88:c2:6d:87:
         42:7d:3c:1e:0d:05:a3:96:96:e9:7c:1e:47:84:90:f6:fe:89:
         47:59:ae:c7:84:86:ae:85:e7:d2:12:61:ed:72:18:27:68:c8:
         f4:86:90:cb:63:f7:4b:5c:d9:98:0e:9b:c7:bc:be:82:aa:d7:
         d8:a2:a8:48:36:8e:c2:7e:a2:19:2b:3b:2b:4b:08:3b:cf:b7:
         34:6e:4a:10:8e:4a:54:f5:bb:93:2d:a5:00:0f:b3:92:df:74:
         14:d0:8c:5f:3f:5b:78:94:33:bd:bd:69:8d:06:71:54:d8:1b:
         64:fc:11:44:08:95:c1:f0:24:55:7d:93:a7:0e:e0:cc:0a:7a:
         d9:70:9f:48:f6:b1:38:e4:2d:9d:b7:3d:c1:52:7b:6a:89:cd:
         7d:1e:9d:3d:62:73:72:b0:39:11:04:3a:4a:95:37:97:71:5e:
         24:c5:4d:83:ba:9b:08:e0:99:ae:d0:76:dd:8f:c4:ee:66:1b:
         c0:4c:57:da:1b:14:83:d8:78:74:27:00:b5:4d:58:19:1e:73:
         ce:75:1f:a7:44:ce:98:31:89:10:5a:92:cb:78:93:9e:bc:28:
         2e:25:a7:d1:76:cf:11:8b:4d:be:54:11:92:4f:a2:19:59:a3:
         f1:c1:65:16:d2:dc:ef:41:00:ed:f8:6e:3b:f1:37:b7:b8:4b:
         6f:53:e5:6e:d9:88:1b:c9:0b:ca:58:32:bc:6c:30:ea:42:12:
         e7:16:03:7a:2c:24:d8:f9:d0:ff:35:f2:87:92:2c:6d:d3:38:
         58:77:ec:61:a5:42:e7:aa:c3:7c:3d:c3:d2:fb:f3:7f:03:35:
         45:08:76:18:8b:16:1f:6c:e6:86:97:39:56:f5:09:a2:58:82:
         bb:79:05:67:1d:5b:4d:c8
-----BEGIN CERTIFICATE-----
MIIFbDCCA1SgAwIBAgIJANiPnxEBTTTaMA0GCSqGSIb3DQEBCwUAMEsxDjAMBgNV
BAoMBUN5cnVzMRYwFAYDVQQDDA1DdW5pdCBUZXN0IENBMSEwHwYJKoZIhvcNAQkB
FhJlbGxpZUBmYXN0bWFpbC5jb20wHhcNMjAwNTA2MDAzOTU2WhcNMzAwNTA0MDAz
OTU2WjBLMQ4wDAYDVQQKDAVDeXJ1czEWMBQGA1UEAwwNQ3VuaXQgVGVzdCBDQTEh
MB8GCSqGSIb3DQEJARYSZWxsaWVAZmFzdG1haWwuY29tMIICIjANBgkqhkiG9w0B
AQEFAAOCAg8AMIICCgKCAgEArZPMjZBL130u5I4q1G4MMczzCvABvm0kyMTHmorF
DgVqhmIUuZRDKC1DuuKeq+WBvrWT/AvI6/BDCnSaTWdphgpxUKz61GwK+3YKKL1R
UAuLpjhutabDeDOJMsuaCmsDgl6jH60KGHc+iyqIMtYD/JbYgsz0ZYnq2OqmZSHo
JntGBSqj2R1o6Rju5XeSIHTa50IkNeVrY7aA+tyeQoCuLT9xA2RquCodv/kOM/GI
iqFR/mIKm1wMnSrEdZj+QDLSGb8/J+wVBodi4N7dhVtGHbCxH5BO5zhduQB9lbva
+yoD704vsESKkusJgjhSjIq3cBT4YTYs2oEIujfqvLqZT1E+bdMBpMR+bEeP80ec
6xahw/cjuDWYpGmiAsQ1rYo6jFUBdKRFIJnb3tzSakK7Fl7ER+dPlatJSmSRO5fS
bpKSrRQAeEzlPrw9NsMMKuncvYMn04NHM5WF3DQvud7psEbAtSZcUod9zVd8BN3O
ASClPZt3ZTFEu8SBeB5jWRSfHD9wGBiHlHmyo+falu44iFUMru+gdcnnT4nICamP
65oAya663S7D5jq8E/DXii9D5NXtcGqzLHAT5BsC6OXPoz2Wp/M7hl7E3Nzj9ZDK
yQ7uCM+sT4HxXkaU17I83j4L5eTFKNUeBOGNxUvQYsQ9Rh1tJ1pP9I+bHLzN4yuN
uyECAwEAAaNTMFEwHQYDVR0OBBYEFDlvjd/tiDRt88OarEq1SUOrdKsKMB8GA1Ud
IwQYMBaAFDlvjd/tiDRt88OarEq1SUOrdKsKMA8GA1UdEwEB/wQFMAMBAf8wDQYJ
KoZIhvcNAQELBQADggIBAA8lVvI0mjy8N2x5NnD1a5vZtljrHrr5CNcVWds8qoXE
VGuBKhX+JJFIZrQjv7nuEqwZ8IQ11PSZtpAKZ1QiQOqR55d1lrlAT9CxagcksCNm
BwxLcCQ4bL1kPOKnKlwA5sxRlSxUw9GKgpaOgnWAUssr4LW8o9JVPJv4xhcMotXn
qTK6516rAKJLhVI+FZU8hKLZjgKWfslFANrgsNnCmpocGKpPtikC2TlEGab1UckV
iMJth0J9PB4NBaOWlul8HkeEkPb+iUdZrseEhq6F59ISYe1yGCdoyPSGkMtj90tc
2ZgOm8e8voKq19iiqEg2jsJ+ohkrOytLCDvPtzRuShCOSlT1u5MtpQAPs5LfdBTQ
jF8/W3iUM729aY0GcVTYG2T8EUQIlcHwJFV9k6cO4MwKetlwn0j2sTjkLZ23PcFS
e2qJzX0enT1ic3KwOREEOkqVN5dxXiTFTYO6mwjgma7Qdt2PxO5mG8BMV9obFIPY
eHQnALVNWBkec851H6dEzpgxiRBakst4k568KC4lp9F2zxGLTb5UEZJPohlZo/HB
ZRbS3O9BAO34bjvxN7e4S29T5W7ZiBvJC8pYMrxsMOpCEucWA3osJNj50P818oeS
LG3TOFh37GGlQueqw3w9w9L7838DNUUIdhiLFh9s5oaXOVb1CaJYgrt5BWcdW03I
-----END CERTIFICATE-----
