Certificate:
    Data:
        Version: 1 (0x0)
        Serial Number:
            b1:9a:bb:97:c3:6c:2f:03
    Signature Algorithm: sha256WithRSAEncryption
        Issuer: O = Cyrus, CN = Cunit Test CA, emailAddress = ellie@fastmail.com
        Validity
            Not Before: May  6 00:51:14 2020 GMT
            Not After : May  4 00:51:14 2030 GMT
        Subject: O = Cyrus, CN = Cunit Test Certificate, emailAddress = ellie@fastmail.com
        Subject Public Key Info:
            Public Key Algorithm: rsaEncryption
                Public-Key: (4096 bit)
                Modulus:
                    00:c5:7b:27:ab:e9:ec:a0:cd:3a:9a:ee:bf:d6:e8:
                    40:da:5d:ff:23:75:7e:b7:c7:94:77:5f:65:a2:a6:
                    58:18:4c:d8:b6:57:b5:ed:46:e6:2c:45:cd:09:ff:
                    bb:24:1b:75:14:54:d1:95:a3:d2:9b:13:5d:dc:4c:
                    e5:20:eb:07:d0:86:2b:1e:53:1a:fa:5e:c6:02:9c:
                    74:82:8c:71:66:4d:7b:e5:e6:92:9b:68:6c:52:a1:
                    d1:cd:a6:12:b8:44:04:9e:55:d2:91:05:fc:83:86:
                    47:6a:e3:d6:b9:b2:a6:01:3c:1e:a6:c7:95:90:81:
                    36:f1:79:72:e1:07:97:1c:aa:41:3d:3a:60:dd:3b:
                    2c:77:6e:ba:6d:cb:27:89:09:a9:db:c9:fe:ff:95:
                    a8:a5:ef:c1:7f:30:bb:a4:d9:d3:af:44:16:d6:45:
                    1c:fa:49:e3:26:10:55:fa:b5:a1:91:99:bc:79:fe:
                    8e:4b:92:a4:30:ca:f4:20:21:ac:0d:fe:c6:4a:69:
                    8c:a5:80:3e:67:e9:fd:d2:02:91:8c:4a:cf:2c:ce:
                    54:7c:cb:76:fa:e7:c0:a0:de:d0:fc:dc:e9:28:21:
                    cd:e4:26:3a:53:fd:bd:3e:ac:51:ae:a9:31:a4:3d:
                    6d:c3:a6:b5:05:af:3e:c2:02:34:08:40:96:ee:d3:
                    11:97:d3:0a:af:51:0e:a9:0f:dd:01:28:1b:51:56:
                    44:91:7b:75:13:71:c3:71:3f:86:a6:c5:f4:18:69:
                    2d:53:9f:c0:84:42:8f:9e:55:5f:5d:6f:c9:e8:a9:
                    40:db:0c:30:f4:20:94:e6:d8:3c:b6:7f:ea:5f:b3:
                    a7:fe:4b:03:21:8f:f5:31:ce:cf:c1:77:b5:3d:6e:
                    46:60:dc:c4:71:4c:18:69:6e:62:b5:ad:ef:da:f8:
                    1d:49:fc:3f:00:6e:d1:ae:1e:01:97:0c:73:81:89:
                    45:61:47:37:7f:22:88:59:bf:87:59:39:e1:c6:42:
                    b6:04:a6:ad:55:6a:53:41:91:a0:60:d0:c7:90:77:
                    57:3d:97:7a:26:92:a6:ec:1a:39:b2:5e:97:a4:08:
                    5a:f3:b3:a6:9a:b7:84:f7:33:98:aa:15:14:d6:f9:
                    b9:be:0a:98:85:f8:e2:ee:e5:c9:dc:b5:0f:30:1b:
                    8b:fa:ef:94:3a:59:8d:03:cb:47:05:07:77:47:7c:
                    57:2f:b3:19:0f:82:59:b9:05:92:ca:6f:a1:0e:29:
                    66:52:99:77:8d:3f:07:61:14:af:63:e4:ae:93:6d:
                    1b:2f:03:ad:a3:f6:e4:89:34:25:c1:c7:bc:ef:37:
                    e3:88:ff:92:67:91:9c:a2:91:6a:f7:9b:b7:e0:67:
                    c4:d1:db
                Exponent: 65537 (0x10001)
    Signature Algorithm: sha256WithRSAEncryption
         01:e9:6b:c7:a2:f7:20:0b:a1:ae:ef:7e:0f:73:8d:9f:4d:c0:
         9e:ce:0c:be:88:a0:d9:07:2e:3b:af:73:79:90:79:6d:67:e5:
         45:8d:cb:96:4f:db:f2:49:f6:5c:22:94:60:a9:0c:05:22:9f:
         e3:4b:7c:b7:5c:e9:25:bf:25:63:f4:b9:f6:bc:dc:8d:ae:2e:
         34:b2:de:68:50:99:00:dd:b4:3f:ee:cf:f5:94:25:51:57:95:
         83:5b:d0:2f:98:80:d8:75:8f:b7:73:e1:18:37:85:70:6c:20:
         96:f7:3a:d7:79:e6:e1:cb:30:40:42:5c:74:34:8a:47:2c:d2:
         8f:a4:ba:54:4c:8c:00:9e:52:d7:af:88:63:a6:d0:35:c8:9a:
         f1:04:87:65:7c:44:f6:9d:7e:83:ee:3e:62:23:21:05:b2:4b:
         da:fa:dc:55:9b:bd:d7:58:08:6a:a1:85:6c:f6:2a:28:09:bc:
         07:ed:32:1a:95:e1:a2:3c:23:26:5b:b4:01:49:0f:87:e3:c3:
         16:75:f5:28:64:b8:b8:a4:68:b8:9e:8c:4b:80:7a:20:60:74:
         bc:72:aa:96:7e:28:77:ed:00:7a:ac:51:13:34:c4:6e:6b:f7:
         ae:9e:83:cb:0e:41:fc:51:f3:61:ff:fd:14:a2:15:da:2f:6a:
         18:2f:5f:01:0a:e9:ae:be:d6:44:37:70:d8:4c:e1:6b:b0:4f:
         34:3d:7b:f8:1f:f4:97:ea:c4:1c:af:c2:7f:50:8a:d1:55:b5:
         1c:b2:c0:9f:e4:1e:45:42:49:ef:05:8d:c2:fe:27:d8:e5:ec:
         e9:d3:65:73:2d:7e:ad:34:05:93:e2:9c:bc:6a:f8:9c:75:09:
         1d:5b:60:e8:b6:15:a4:35:6a:55:38:3e:4e:dc:07:13:82:6f:
         0a:95:7d:fc:44:29:8f:d5:4b:f8:64:dd:54:5c:02:e7:be:84:
         de:46:ad:65:5b:31:b4:7f:f0:de:03:a3:7c:e6:53:12:21:ed:
         df:18:98:ef:7f:aa:59:ee:78:cc:1f:3b:b1:9b:67:75:1e:a5:
         8e:ad:ac:21:c9:b5:55:08:76:7a:24:d5:7a:87:ba:64:11:c3:
         a7:89:35:8f:55:90:aa:e5:ed:7e:ee:c5:94:33:59:ad:ef:62:
         98:88:ae:d1:38:7d:25:56:ee:d0:9b:9d:cc:9a:fa:27:9f:83:
         59:7f:39:a7:06:b1:1e:f6:6e:5d:42:4d:48:02:ce:a8:6e:0f:
         78:f4:f0:b3:c7:0d:c3:26:a2:ff:ac:ea:6a:0d:6b:75:c2:72:
         49:c5:a7:36:47:90:23:da:f9:84:9c:c7:a6:6b:49:02:4d:a6:
         dd:8e:e9:27:d2:4c:51:1b
-----BEGIN CERTIFICATE-----
MIIFGzCCAwMCCQCxmruXw2wvAzANBgkqhkiG9w0BAQsFADBLMQ4wDAYDVQQKDAVD
eXJ1czEWMBQGA1UEAwwNQ3VuaXQgVGVzdCBDQTEhMB8GCSqGSIb3DQEJARYSZWxs
aWVAZmFzdG1haWwuY29tMB4XDTIwMDUwNjAwNTExNFoXDTMwMDUwNDAwNTExNFow
VDEOMAwGA1UECgwFQ3lydXMxHzAdBgNVBAMMFkN1bml0IFRlc3QgQ2VydGlmaWNh
dGUxITAfBgkqhkiG9w0BCQEWEmVsbGllQGZhc3RtYWlsLmNvbTCCAiIwDQYJKoZI
hvcNAQEBBQADggIPADCCAgoCggIBAMV7J6vp7KDNOpruv9boQNpd/yN1frfHlHdf
ZaKmWBhM2LZXte1G5ixFzQn/uyQbdRRU0ZWj0psTXdxM5SDrB9CGKx5TGvpexgKc
dIKMcWZNe+XmkptobFKh0c2mErhEBJ5V0pEF/IOGR2rj1rmypgE8HqbHlZCBNvF5
cuEHlxyqQT06YN07LHduum3LJ4kJqdvJ/v+VqKXvwX8wu6TZ069EFtZFHPpJ4yYQ
Vfq1oZGZvHn+jkuSpDDK9CAhrA3+xkppjKWAPmfp/dICkYxKzyzOVHzLdvrnwKDe
0Pzc6SghzeQmOlP9vT6sUa6pMaQ9bcOmtQWvPsICNAhAlu7TEZfTCq9RDqkP3QEo
G1FWRJF7dRNxw3E/hqbF9BhpLVOfwIRCj55VX11vyeipQNsMMPQglObYPLZ/6l+z
p/5LAyGP9THOz8F3tT1uRmDcxHFMGGluYrWt79r4HUn8PwBu0a4eAZcMc4GJRWFH
N38iiFm/h1k54cZCtgSmrVVqU0GRoGDQx5B3Vz2XeiaSpuwaObJel6QIWvOzppq3
hPczmKoVFNb5ub4KmIX44u7lydy1DzAbi/rvlDpZjQPLRwUHd0d8Vy+zGQ+CWbkF
kspvoQ4pZlKZd40/B2EUr2PkrpNtGy8DraP25Ik0JcHHvO8344j/kmeRnKKRaveb
t+BnxNHbAgMBAAEwDQYJKoZIhvcNAQELBQADggIBAAHpa8ei9yALoa7vfg9zjZ9N
wJ7ODL6IoNkHLjuvc3mQeW1n5UWNy5ZP2/JJ9lwilGCpDAUin+NLfLdc6SW/JWP0
ufa83I2uLjSy3mhQmQDdtD/uz/WUJVFXlYNb0C+YgNh1j7dz4Rg3hXBsIJb3Otd5
5uHLMEBCXHQ0ikcs0o+kulRMjACeUteviGOm0DXImvEEh2V8RPadfoPuPmIjIQWy
S9r63FWbvddYCGqhhWz2KigJvAftMhqV4aI8IyZbtAFJD4fjwxZ19ShkuLikaLie
jEuAeiBgdLxyqpZ+KHftAHqsURM0xG5r966eg8sOQfxR82H//RSiFdovahgvXwEK
6a6+1kQ3cNhM4WuwTzQ9e/gf9JfqxByvwn9QitFVtRyywJ/kHkVCSe8FjcL+J9jl
7OnTZXMtfq00BZPinLxq+Jx1CR1bYOi2FaQ1alU4Pk7cBxOCbwqVffxEKY/VS/hk
3VRcAue+hN5GrWVbMbR/8N4Do3zmUxIh7d8YmO9/qlnueMwfO7GbZ3UepY6trCHJ
tVUIdnok1XqHumQRw6eJNY9VkKrl7X7uxZQzWa3vYpiIrtE4fSVW7tCbncya+ief
g1l/OacGsR72bl1CTUgCzqhuD3j08LPHDcMmov+s6moNa3XCcknFpzZHkCPa+YSc
x6ZrSQJNpt2O6SfSTFEb
-----END CERTIFICATE-----
