Certificate:
    Data:
        Version: 3 (0x2)
        Serial Number: 2264200334377237716 (0x1f6c0e3536e03cd4)
        Signature Algorithm: sha256WithRSAEncryption
        Issuer: C = US, O = Unspecified, OU = ca-2264200334377237716, CN = b67bd464647b
        Validity
            Not Before: Sep 11 21:26:09 2019 GMT
            Not After : Oct 29 14:06:09 2029 GMT
        Subject: C = US, O = Unspecified, OU = ca-2264200334377237716, CN = b67bd464647b
        Subject Public Key Info:
            Public Key Algorithm: rsaEncryption
                RSA Public-Key: (4096 bit)
                Modulus:
                    00:ce:c9:35:b3:27:e3:9f:04:cd:2c:6f:b9:db:b6:
                    a0:fa:f2:77:8d:39:8a:e1:56:1a:d4:96:4a:c0:9f:
                    de:b9:64:1a:dd:f9:54:48:b2:ee:8f:01:ca:ad:f9:
                    46:a6:3f:3a:84:ff:2e:b1:fe:cf:ec:58:b0:96:73:
                    ff:94:cf:3c:9e:bd:df:2c:8d:5c:a4:71:62:de:7c:
                    7a:09:ce:e1:d6:3f:59:39:57:7c:37:2a:72:f4:59:
                    1d:e6:05:92:ca:24:fa:2a:3d:fc:6b:cd:c4:81:55:
                    29:e3:6c:99:4d:a1:a1:9e:7d:bc:5d:49:c4:fc:47:
                    30:30:71:a3:5d:88:75:1c:24:72:ec:68:65:29:ee:
                    bc:d9:36:79:36:f8:c0:b7:a3:07:06:25:2b:70:00:
                    0f:92:86:59:f3:4a:54:1a:b0:32:5e:8b:5d:50:a2:
                    1a:37:be:98:dc:5c:27:03:39:f0:ab:26:22:25:9a:
                    d3:cb:69:8c:06:49:85:8a:2d:5b:3f:ca:0a:35:5c:
                    ec:2d:71:fe:cd:af:91:ed:fa:fd:6d:f4:a6:c2:c0:
                    23:73:1a:4b:7a:88:8d:9d:95:96:f8:38:b7:09:c3:
                    b8:6f:b2:dd:d0:db:59:9c:08:61:4c:c6:3a:fc:a4:
                    6f:dd:0b:79:98:9f:d2:2e:c6:82:23:fd:61:a4:06:
                    6f:72:28:e8:1b:5f:37:90:04:08:97:ca:3c:3d:ae:
                    d3:7a:1d:f8:f2:7e:98:79:bc:32:77:c6:4b:56:87:
                    2a:a1:66:af:84:65:30:47:76:a2:41:13:a6:cb:7e:
                    fd:65:31:ec:64:1a:4d:5b:05:0e:a4:cd:c6:a8:56:
                    a5:87:08:10:2e:f4:04:dd:89:58:55:46:c8:95:20:
                    fd:af:13:2b:a2:81:8c:96:61:87:a3:be:9f:4e:88:
                    a8:cb:08:d5:90:6a:25:4c:09:fe:60:e5:4a:c6:27:
                    a3:78:29:1f:17:be:81:51:8d:37:42:40:52:ca:5c:
                    ee:6c:fd:5e:7a:0d:08:af:12:bf:a7:7f:99:82:e3:
                    a4:49:a7:d0:80:64:44:4f:6d:be:a9:3b:59:af:bb:
                    4d:4a:b6:5a:fc:87:f3:fb:df:93:47:bf:61:d2:b4:
                    b8:4a:c3:d2:98:c4:6b:65:41:68:cd:2b:f6:cb:59:
                    99:0b:3b:20:8a:f7:09:47:72:e9:f0:2c:12:b2:56:
                    08:95:dd:45:20:a0:4f:73:cd:cd:e1:d5:b9:55:fa:
                    76:22:62:f4:b2:ae:9d:85:a3:6b:d9:10:08:0e:28:
                    e7:c7:c2:22:10:8f:ea:a9:d1:43:8e:62:dd:00:8b:
                    32:65:bd:e7:14:78:8a:7a:78:b7:f6:5c:e8:52:c6:
                    58:d6:7f
                Exponent: 65537 (0x10001)
        X509v3 extensions:
            X509v3 Key Usage: critical
                Digital Signature, Key Encipherment, Certificate Sign
            X509v3 Basic Constraints: 
                CA:TRUE
            X509v3 Name Constraints: 
                Permitted:
                  DNS:b67bd464647b

            X509v3 Subject Alternative Name: 
                DNS:b67bd464647b
            X509v3 Subject Key Identifier: 
                0A:F9:36:3E:5C:42:56:2D:E9:38:7C:58:10:7C:21:10:CA:4F:2B:D5
    Signature Algorithm: sha256WithRSAEncryption
         37:91:d5:0e:7d:14:81:04:5f:f6:24:e3:23:44:b9:2d:99:92:
         94:e5:e9:f0:7e:37:0c:fc:8d:70:ac:2f:3c:b0:b4:73:94:9c:
         d7:85:d1:8b:f1:26:6f:8c:72:f3:5d:f3:1a:b4:b6:d2:ea:f8:
         0b:58:eb:0d:28:83:11:e6:7d:b2:5c:c2:17:83:8b:32:b4:55:
         b0:b3:48:31:d6:38:69:b7:3a:e8:42:fd:b7:c2:27:c3:8b:ac:
         ef:b6:55:6b:ef:d6:ca:ca:5c:80:34:46:c7:a4:ef:f6:c9:0a:
         d7:d1:8b:d9:76:b4:4a:41:04:54:37:6e:c8:e7:14:ba:09:ff:
         b2:49:f4:ee:ca:4b:9c:c5:57:76:6d:b7:f7:8a:fc:b7:b2:92:
         51:36:ea:e4:76:3e:dc:d6:4b:ec:c5:b9:20:7b:7e:3a:1b:9a:
         d5:c4:93:74:f1:4e:90:60:62:f3:f3:fa:7b:3c:6d:30:80:b5:
         54:0b:ad:04:1b:cc:b6:cd:f2:5b:89:72:3a:62:43:fd:d2:94:
         3d:e8:d2:98:f5:75:0e:95:8c:96:77:27:47:f3:7f:49:df:6f:
         42:6c:71:6a:f6:89:72:3d:ae:46:84:db:3d:b6:68:4d:cc:9c:
         3d:53:f2:fb:29:7e:bd:3a:04:50:1a:2f:50:7b:ed:30:a7:8a:
         5d:b9:85:fd:c2:c8:34:f2:de:6a:91:d2:bf:1c:25:7f:14:70:
         ba:67:16:71:a5:88:e3:37:39:38:9d:8c:8d:24:67:5e:50:9f:
         76:cd:51:16:34:7b:98:5d:68:e6:6f:21:28:fc:65:ac:17:67:
         95:f6:9e:37:21:87:ba:cf:3f:c3:38:a8:91:04:e1:4a:3b:0f:
         4f:5d:03:9e:0a:57:64:e0:21:81:88:e0:c7:6c:45:a3:b5:d3:
         cb:24:db:be:85:65:b4:a4:a1:3d:b0:d1:14:fb:ed:9a:cf:ef:
         d5:60:81:e9:3f:ae:dc:56:f8:34:64:52:f8:c7:51:e5:f5:3c:
         13:0e:ab:a3:aa:00:63:43:60:9f:7f:9e:e6:b6:b9:66:be:1f:
         b5:d4:cb:66:43:53:d1:87:4e:db:51:ae:50:6b:e1:a9:46:3d:
         96:8e:48:6b:e9:10:5b:d7:7e:22:3f:82:84:5f:1b:dd:9e:06:
         6b:35:90:d2:d1:cb:6b:e3:b5:6d:99:70:94:69:fb:1a:a0:72:
         ce:d0:97:60:31:95:56:19:30:8a:bd:b8:61:85:d5:f8:66:29:
         71:51:60:e5:65:a1:dc:a0:42:8d:5c:91:1b:8a:96:75:f2:9c:
         dc:38:41:54:58:c6:83:0d:c9:fb:08:fa:be:fc:c7:d7:0a:45:
         4d:1c:37:66:6e:4e:42:05
-----BEGIN CERTIFICATE-----
MIIFrTCCA5WgAwIBAgIIH2wONTbgPNQwDQYJKoZIhvcNAQELBQAwWzELMAkGA1UE
BhMCVVMxFDASBgNVBAoMC1Vuc3BlY2lmaWVkMR8wHQYDVQQLDBZjYS0yMjY0MjAw
MzM0Mzc3MjM3NzE2MRUwEwYDVQQDDAxiNjdiZDQ2NDY0N2IwHhcNMTkwOTExMjEy
NjA5WhcNMjkxMDI5MTQwNjA5WjBbMQswCQYDVQQGEwJVUzEUMBIGA1UECgwLVW5z
cGVjaWZpZWQxHzAdBgNVBAsMFmNhLTIyNjQyMDAzMzQzNzcyMzc3MTYxFTATBgNV
BAMMDGI2N2JkNDY0NjQ3YjCCAiIwDQYJKoZIhvcNAQEBBQADggIPADCCAgoCggIB
AM7JNbMn458EzSxvudu2oPryd405iuFWGtSWSsCf3rlkGt35VEiy7o8Byq35RqY/
OoT/LrH+z+xYsJZz/5TPPJ693yyNXKRxYt58egnO4dY/WTlXfDcqcvRZHeYFksok
+io9/GvNxIFVKeNsmU2hoZ59vF1JxPxHMDBxo12IdRwkcuxoZSnuvNk2eTb4wLej
BwYlK3AAD5KGWfNKVBqwMl6LXVCiGje+mNxcJwM58KsmIiWa08tpjAZJhYotWz/K
CjVc7C1x/s2vke36/W30psLAI3MaS3qIjZ2Vlvg4twnDuG+y3dDbWZwIYUzGOvyk
b90LeZif0i7GgiP9YaQGb3Io6BtfN5AECJfKPD2u03od+PJ+mHm8MnfGS1aHKqFm
r4RlMEd2okETpst+/WUx7GQaTVsFDqTNxqhWpYcIEC70BN2JWFVGyJUg/a8TK6KB
jJZhh6O+n06IqMsI1ZBqJUwJ/mDlSsYno3gpHxe+gVGNN0JAUspc7mz9XnoNCK8S
v6d/mYLjpEmn0IBkRE9tvqk7Wa+7TUq2WvyH8/vfk0e/YdK0uErD0pjEa2VBaM0r
9stZmQs7IIr3CUdy6fAsErJWCJXdRSCgT3PNzeHVuVX6diJi9LKunYWja9kQCA4o
58fCIhCP6qnRQ45i3QCLMmW95xR4inp4t/Zc6FLGWNZ/AgMBAAGjdTBzMA4GA1Ud
DwEB/wQEAwICpDAMBgNVHRMEBTADAQH/MBsGA1UdHgQUMBKgEDAOggxiNjdiZDQ2
NDY0N2IwFwYDVR0RBBAwDoIMYjY3YmQ0NjQ2NDdiMB0GA1UdDgQWBBQK+TY+XEJW
Lek4fFgQfCEQyk8r1TANBgkqhkiG9w0BAQsFAAOCAgEAN5HVDn0UgQRf9iTjI0S5
LZmSlOXp8H43DPyNcKwvPLC0c5Sc14XRi/Emb4xy813zGrS20ur4C1jrDSiDEeZ9
slzCF4OLMrRVsLNIMdY4abc66EL9t8Inw4us77ZVa+/WyspcgDRGx6Tv9skK19GL
2Xa0SkEEVDduyOcUugn/skn07spLnMVXdm2394r8t7KSUTbq5HY+3NZL7MW5IHt+
Ohua1cSTdPFOkGBi8/P6ezxtMIC1VAutBBvMts3yW4lyOmJD/dKUPejSmPV1DpWM
lncnR/N/Sd9vQmxxavaJcj2uRoTbPbZoTcycPVPy+yl+vToEUBovUHvtMKeKXbmF
/cLINPLeapHSvxwlfxRwumcWcaWI4zc5OJ2MjSRnXlCfds1RFjR7mF1o5m8hKPxl
rBdnlfaeNyGHus8/wziokQThSjsPT10DngpXZOAhgYjgx2xFo7XTyyTbvoVltKSh
PbDRFPvtms/v1WCB6T+u3Fb4NGRS+MdR5fU8Ew6ro6oAY0Ngn3+e5ra5Zr4ftdTL
ZkNT0YdO21GuUGvhqUY9lo5Ia+kQW9d+Ij+ChF8b3Z4GazWQ0tHLa+O1bZlwlGn7
GqByztCXYDGVVhkwir24YYXV+GYpcVFg5WWh3KBCjVyRG4qWdfKc3DhBVFjGgw3J
+wj6vvzH1wpFTRw3Zm5OQgU=
-----END CERTIFICATE-----
