Certificate:
    Data:
        Version: 3 (0x2)
        Serial Number:
            dc:ff:1e:12:b0:0b:b6:a0
        Signature Algorithm: sha1WithRSAEncryption
        Issuer: C=AU, ST=Victoria, O=Cyrus IMAP Testers, Inc., OU=SSL Wrangling, CN=Greg Banks/emailAddress=gnb@fastmail.fm
        Validity
            Not Before: Feb  1 06:35:58 2011 GMT
            Not After : Jan 31 06:35:58 2014 GMT
        Subject: C=AU, ST=Victoria, O=Cyrus IMAP Testers, Inc., OU=SSL Wrangling, CN=Greg Banks/emailAddress=gnb@fastmail.fm
        Subject Public Key Info:
            Public Key Algorithm: rsaEncryption
            RSA Public Key: (1024 bit)
                Modulus (1024 bit):
                    00:da:e4:ec:8f:ef:07:6d:58:b3:13:3e:d0:25:30:
                    07:11:35:88:df:70:5c:f5:0d:10:5c:a6:96:4b:e4:
                    9c:f3:df:3f:8f:54:fa:00:1b:a2:b9:e8:5f:17:19:
                    ee:a8:9a:5d:40:59:6b:d3:90:1b:6f:6c:3b:27:0c:
                    be:e0:32:1a:a6:31:bc:57:e5:20:86:c8:c2:2f:b1:
                    7c:a0:fe:a9:d7:57:7e:6c:3e:ee:92:b7:f7:7a:fe:
                    20:e1:4e:46:91:0a:4a:c2:5b:23:1c:f2:03:0a:8d:
                    cc:c9:e4:9b:d8:02:fb:97:6e:38:ee:ce:8d:1f:6b:
                    d6:45:70:f8:b9:3b:6e:d3:a7
                Exponent: 65537 (0x10001)
        X509v3 extensions:
            X509v3 Subject Key Identifier: 
                D3:8D:00:56:9B:71:99:CE:00:44:F4:86:98:AE:A9:78:AB:20:17:8A
            X509v3 Authority Key Identifier: 
                keyid:D3:8D:00:56:9B:71:99:CE:00:44:F4:86:98:AE:A9:78:AB:20:17:8A
                DirName:/C=AU/ST=Victoria/O=Cyrus IMAP Testers, Inc./OU=SSL Wrangling/CN=Greg Banks/emailAddress=gnb@fastmail.fm
                serial:DC:FF:1E:12:B0:0B:B6:A0

            X509v3 Basic Constraints: 
                CA:TRUE
    Signature Algorithm: sha1WithRSAEncryption
        6f:ec:eb:37:40:53:b0:af:c7:db:28:64:6f:5d:49:80:7d:2f:
        98:59:3b:18:c4:f9:19:57:5d:04:80:97:0e:9e:dc:d5:fe:da:
        93:d9:55:38:ec:33:f7:e2:e2:c0:ba:9c:13:4d:15:1b:52:40:
        af:93:1b:6c:97:74:7a:cc:1d:8d:31:ec:cd:b0:ba:31:5e:18:
        44:45:7a:80:3d:e4:6d:18:dc:87:95:f9:2b:8e:3c:1f:64:04:
        b1:8e:10:fb:6b:db:60:ed:62:75:d5:08:ab:55:03:ff:a5:7c:
        33:0a:66:07:35:37:b2:49:93:e7:8a:80:c7:0d:e9:c0:fe:9b:
        80:2a
-----BEGIN CERTIFICATE-----
MIIDmTCCAwKgAwIBAgIJANz/HhKwC7agMA0GCSqGSIb3DQEBBQUAMIGQMQswCQYD
VQQGEwJBVTERMA8GA1UECBMIVmljdG9yaWExITAfBgNVBAoTGEN5cnVzIElNQVAg
VGVzdGVycywgSW5jLjEWMBQGA1UECxMNU1NMIFdyYW5nbGluZzETMBEGA1UEAxMK
R3JlZyBCYW5rczEeMBwGCSqGSIb3DQEJARYPZ25iQGZhc3RtYWlsLmZtMB4XDTEx
MDIwMTA2MzU1OFoXDTE0MDEzMTA2MzU1OFowgZAxCzAJBgNVBAYTAkFVMREwDwYD
VQQIEwhWaWN0b3JpYTEhMB8GA1UEChMYQ3lydXMgSU1BUCBUZXN0ZXJzLCBJbmMu
MRYwFAYDVQQLEw1TU0wgV3JhbmdsaW5nMRMwEQYDVQQDEwpHcmVnIEJhbmtzMR4w
HAYJKoZIhvcNAQkBFg9nbmJAZmFzdG1haWwuZm0wgZ8wDQYJKoZIhvcNAQEBBQAD
gY0AMIGJAoGBANrk7I/vB21YsxM+0CUwBxE1iN9wXPUNEFymlkvknPPfP49U+gAb
ornoXxcZ7qiaXUBZa9OQG29sOycMvuAyGqYxvFflIIbIwi+xfKD+qddXfmw+7pK3
93r+IOFORpEKSsJbIxzyAwqNzMnkm9gC+5duOO7OjR9r1kVw+Lk7btOnAgMBAAGj
gfgwgfUwHQYDVR0OBBYEFNONAFabcZnOAET0hpiuqXirIBeKMIHFBgNVHSMEgb0w
gbqAFNONAFabcZnOAET0hpiuqXirIBeKoYGWpIGTMIGQMQswCQYDVQQGEwJBVTER
MA8GA1UECBMIVmljdG9yaWExITAfBgNVBAoTGEN5cnVzIElNQVAgVGVzdGVycywg
SW5jLjEWMBQGA1UECxMNU1NMIFdyYW5nbGluZzETMBEGA1UEAxMKR3JlZyBCYW5r
czEeMBwGCSqGSIb3DQEJARYPZ25iQGZhc3RtYWlsLmZtggkA3P8eErALtqAwDAYD
VR0TBAUwAwEB/zANBgkqhkiG9w0BAQUFAAOBgQBv7Os3QFOwr8fbKGRvXUmAfS+Y
WTsYxPkZV10EgJcOntzV/tqT2VU47DP34uLAupwTTRUbUkCvkxtsl3R6zB2NMezN
sLoxXhhERXqAPeRtGNyHlfkrjjwfZASxjhD7a9tg7WJ11QirVQP/pXwzCmYHNTey
SZPnioDHDenA/puAKg==
-----END CERTIFICATE-----
