Certificate:
    Data:
        Version: 3 (0x2)
        Serial Number:
            dc:ff:1e:12:b0:0b:b6:a1
        Signature Algorithm: sha1WithRSAEncryption
        Issuer: C=AU, ST=Victoria, O=Cyrus IMAP Testers, Inc., OU=SSL Wrangling, CN=Greg Banks/emailAddress=gnb@fastmail.fm
        Validity
            Not Before: Feb  1 07:40:55 2011 GMT
            Not After : Feb  1 07:40:55 2012 GMT
        Subject: C=AU, ST=Victoria, O=Cyrus IMAP Testers, Inc., OU=SSL Wranglers, CN=Greg Banks/emailAddress=gnb@fastmail.fm
        Subject Public Key Info:
            Public Key Algorithm: rsaEncryption
            RSA Public Key: (1024 bit)
                Modulus (1024 bit):
                    00:f2:cc:96:27:92:93:ad:56:9c:78:85:68:d0:bd:
                    00:00:62:7a:d5:22:b3:54:f0:4a:1b:bc:18:8d:7e:
                    37:1f:cb:b0:04:ab:d8:91:55:37:c8:89:79:2f:94:
                    cd:02:d3:34:0f:49:ca:68:80:1c:8b:9b:be:43:c4:
                    8f:a1:53:04:a8:35:b7:8d:d8:67:ec:92:30:89:87:
                    55:0b:a9:9d:45:37:88:af:ea:99:64:11:9c:5e:c2:
                    d5:95:17:df:37:23:f1:0c:75:e9:0b:b6:1e:b0:80:
                    7d:a0:da:87:6c:80:3f:73:72:f4:d4:b4:5d:54:78:
                    07:6b:ef:7f:7f:0a:08:84:bb
                Exponent: 65537 (0x10001)
        X509v3 extensions:
            X509v3 Basic Constraints: 
                CA:FALSE
            Netscape Comment: 
                OpenSSL Generated Certificate
            X509v3 Subject Key Identifier: 
                96:48:A2:12:B6:AD:DC:B8:94:D4:4E:46:94:C4:1E:AF:32:4C:B9:01
            X509v3 Authority Key Identifier: 
                keyid:D3:8D:00:56:9B:71:99:CE:00:44:F4:86:98:AE:A9:78:AB:20:17:8A

    Signature Algorithm: sha1WithRSAEncryption
        7a:4c:82:b7:55:31:76:89:44:08:57:0d:c9:df:82:e7:1f:94:
        b1:5f:a6:bc:93:63:d7:90:74:25:b0:0b:5b:eb:b6:d0:46:e3:
        59:34:8c:e8:46:7a:33:af:b6:4d:3f:b8:0a:dd:89:51:22:f2:
        f8:26:97:9e:4b:62:8a:10:f4:87:0c:cb:53:ff:c8:2b:a2:95:
        0e:02:65:e5:97:b5:ad:c6:87:25:c9:dc:35:b5:c7:e2:4d:d5:
        cb:dd:a7:2a:e4:0f:7e:e1:a3:b8:fa:11:02:61:0e:04:2b:3a:
        a7:73:80:e1:26:24:24:6c:fb:35:50:31:6e:ce:15:53:c7:43:
        1a:60
-----BEGIN CERTIFICATE-----
MIIDGzCCAoSgAwIBAgIJANz/HhKwC7ahMA0GCSqGSIb3DQEBBQUAMIGQMQswCQYD
VQQGEwJBVTERMA8GA1UECBMIVmljdG9yaWExITAfBgNVBAoTGEN5cnVzIElNQVAg
VGVzdGVycywgSW5jLjEWMBQGA1UECxMNU1NMIFdyYW5nbGluZzETMBEGA1UEAxMK
R3JlZyBCYW5rczEeMBwGCSqGSIb3DQEJARYPZ25iQGZhc3RtYWlsLmZtMB4XDTEx
MDIwMTA3NDA1NVoXDTEyMDIwMTA3NDA1NVowgZAxCzAJBgNVBAYTAkFVMREwDwYD
VQQIEwhWaWN0b3JpYTEhMB8GA1UEChMYQ3lydXMgSU1BUCBUZXN0ZXJzLCBJbmMu
MRYwFAYDVQQLEw1TU0wgV3JhbmdsZXJzMRMwEQYDVQQDEwpHcmVnIEJhbmtzMR4w
HAYJKoZIhvcNAQkBFg9nbmJAZmFzdG1haWwuZm0wgZ8wDQYJKoZIhvcNAQEBBQAD
gY0AMIGJAoGBAPLMlieSk61WnHiFaNC9AABietUis1TwShu8GI1+Nx/LsASr2JFV
N8iJeS+UzQLTNA9JymiAHIubvkPEj6FTBKg1t43YZ+ySMImHVQupnUU3iK/qmWQR
nF7C1ZUX3zcj8Qx16Qu2HrCAfaDah2yAP3Ny9NS0XVR4B2vvf38KCIS7AgMBAAGj
ezB5MAkGA1UdEwQCMAAwLAYJYIZIAYb4QgENBB8WHU9wZW5TU0wgR2VuZXJhdGVk
IENlcnRpZmljYXRlMB0GA1UdDgQWBBSWSKIStq3cuJTUTkaUxB6vMky5ATAfBgNV
HSMEGDAWgBTTjQBWm3GZzgBE9IaYrql4qyAXijANBgkqhkiG9w0BAQUFAAOBgQB6
TIK3VTF2iUQIVw3J34LnH5SxX6a8k2PXkHQlsAtb67bQRuNZNIzoRnozr7ZNP7gK
3YlRIvL4JpeeS2KKEPSHDMtT/8gropUOAmXll7Wtxoclydw1tcfiTdXL3acq5A9+
4aO4+hECYQ4EKzqnc4DhJiQkbPs1UDFuzhVTx0MaYA==
-----END CERTIFICATE-----
