Certificate:
    Data:
        Version: 3 (0x2)
        Serial Number: 4559546074304615571 (0x3f46c2ff3ff41493)
        Signature Algorithm: sha256WithRSAEncryption
        Issuer: C = US, O = Unspecified, OU = ca-2264200334377237716, CN = b67bd464647b
        Validity
            Not Before: Sep 11 21:26:09 2019 GMT
            Not After : Oct 29 14:06:09 2029 GMT
        Subject: C = US, O = Unspecified, CN = b67bd464647b
        Subject Public Key Info:
            Public Key Algorithm: rsaEncryption
                RSA Public-Key: (2048 bit)
                Modulus:
                    00:cb:d3:c0:30:87:43:50:5d:a8:61:92:b8:d1:17:
                    41:18:71:e8:f7:02:90:3b:dc:f2:e3:02:f9:14:f8:
                    30:55:08:af:4a:e4:1c:26:70:84:05:6f:77:95:fd:
                    61:f9:99:05:00:6f:80:c9:0c:1a:c8:92:be:bb:6a:
                    bc:40:cc:f8:91:d6:fe:05:d6:80:ae:e0:1f:eb:14:
                    6b:65:6e:a4:15:01:ec:03:50:68:57:91:70:ef:66:
                    a6:cd:64:d8:b1:d3:16:a1:8d:11:b7:61:47:8c:dc:
                    eb:82:18:7b:9f:fb:21:e1:22:85:35:8d:cb:7f:58:
                    18:0e:23:16:d0:ba:05:57:bc:d5:48:40:fa:48:81:
                    d8:5a:e5:e9:4b:fb:3a:05:74:d2:71:c1:69:24:63:
                    83:ef:b9:d8:ec:6a:55:9f:a7:34:46:92:0c:12:e8:
                    03:63:44:a6:b6:08:88:bb:42:9d:aa:7f:f9:41:8f:
                    1e:8d:ca:76:99:86:09:98:1c:b5:b5:b5:b2:a4:36:
                    8e:a6:83:ff:43:9a:88:dc:7f:62:25:5e:7d:46:32:
                    0c:8c:9d:1b:bc:f3:19:34:e5:22:88:1a:2a:8d:42:
                    0f:a1:0a:db:59:0c:ca:f3:b1:d2:12:d5:03:ba:cb:
                    d6:d8:d3:40:49:80:3c:ec:9b:fe:fd:5a:eb:3b:51:
                    5e:45
                Exponent: 65537 (0x10001)
        X509v3 extensions:
            X509v3 Key Usage: critical
                Digital Signature, Key Encipherment
            X509v3 Basic Constraints: 
                CA:FALSE
            X509v3 Subject Alternative Name: 
                DNS:b67bd464647b
            X509v3 Authority Key Identifier: 
                keyid:0A:F9:36:3E:5C:42:56:2D:E9:38:7C:58:10:7C:21:10:CA:4F:2B:D5

    Signature Algorithm: sha256WithRSAEncryption
         1a:13:da:94:18:5b:3f:85:fc:7e:c7:64:fc:16:38:90:1d:a8:
         5d:1b:ee:68:4d:3b:74:c9:08:04:f5:77:d9:e9:61:f1:1b:02:
         21:45:21:99:26:a5:ca:92:62:92:6a:4f:7d:dc:09:94:fb:49:
         40:15:cb:a1:76:05:7a:d3:9f:d8:b0:be:49:f8:7b:c3:5e:f6:
         d6:8b:8e:23:47:63:6f:b5:f3:37:41:e5:d9:e0:8a:63:9f:02:
         51:cb:3e:30:e4:99:f4:36:d0:f2:b5:38:2b:7e:af:4b:9b:0f:
         7e:ab:84:e9:2a:96:14:f5:05:60:6c:e5:83:e6:c4:8b:67:ec:
         bb:3c:0d:bd:96:a8:64:1a:e3:3f:e1:4f:ce:66:a4:b1:ea:48:
         6b:89:99:e4:c0:4a:74:10:b7:3d:ff:f5:11:f1:cd:b9:35:26:
         52:81:88:66:44:28:a8:cc:4c:dc:45:97:c0:44:5b:eb:3b:b4:
         8d:57:2f:ea:3e:a6:d8:d0:63:cd:b4:62:3d:f8:55:51:b3:6a:
         94:69:fe:5a:c0:f1:97:32:0a:38:3b:0f:f3:b3:3e:2a:59:00:
         b6:91:ed:73:99:b1:3f:fa:c0:83:74:31:e2:df:da:96:48:a3:
         22:23:f5:6b:76:79:88:07:8f:a6:8e:bc:77:44:f0:23:d9:0f:
         50:53:e0:5d:40:a8:88:ad:f3:7e:48:79:41:85:15:d8:b5:4b:
         b2:26:fd:5b:41:fa:e3:ec:14:b5:cc:2a:ec:14:9d:23:26:02:
         45:f6:56:cb:1b:b6:08:69:64:04:80:1d:f7:5b:6f:cf:18:20:
         97:9e:3c:18:dd:56:55:ac:8c:cb:69:ad:1f:46:1a:ba:ac:3b:
         46:8d:d6:65:22:cb:31:f4:72:79:77:fe:87:26:eb:90:75:28:
         93:76:9d:07:ad:87:d1:ff:b1:37:1f:31:f9:97:af:2c:b7:b2:
         05:6e:55:88:de:1d:9b:4e:85:09:d7:7d:4e:32:48:9e:f7:37:
         2d:c6:d3:67:f2:b5:b8:8a:2e:04:d0:b9:67:8b:63:83:ba:86:
         ad:8a:88:da:be:4e:30:bf:d0:da:bd:57:10:5f:1a:0d:f6:5d:
         9a:dc:8b:f4:a4:2a:cd:88:1b:cc:07:19:e0:23:6c:2e:e5:1b:
         0d:2b:8a:18:1c:a5:50:44:b8:92:e7:c4:e6:d2:4d:75:d7:83:
         4b:ee:03:6f:e6:7d:3c:99:df:02:8a:ad:3e:34:0c:a1:4a:f6:
         46:38:50:4e:53:44:48:7d:53:9c:e2:ad:06:ac:f1:c0:38:b2:
         4b:90:f9:32:72:42:4a:60:25:aa:6e:0c:66:dc:c7:3a:7f:ae:
         9f:c0:00:e6:da:5b:53:ad
-----BEGIN CERTIFICATE-----
MIIEbjCCAlagAwIBAgIIP0bC/z/0FJMwDQYJKoZIhvcNAQELBQAwWzELMAkGA1UE
BhMCVVMxFDASBgNVBAoMC1Vuc3BlY2lmaWVkMR8wHQYDVQQLDBZjYS0yMjY0MjAw
MzM0Mzc3MjM3NzE2MRUwEwYDVQQDDAxiNjdiZDQ2NDY0N2IwHhcNMTkwOTExMjEy
NjA5WhcNMjkxMDI5MTQwNjA5WjA6MQswCQYDVQQGEwJVUzEUMBIGA1UECgwLVW5z
cGVjaWZpZWQxFTATBgNVBAMMDGI2N2JkNDY0NjQ3YjCCASIwDQYJKoZIhvcNAQEB
BQADggEPADCCAQoCggEBAMvTwDCHQ1BdqGGSuNEXQRhx6PcCkDvc8uMC+RT4MFUI
r0rkHCZwhAVvd5X9YfmZBQBvgMkMGsiSvrtqvEDM+JHW/gXWgK7gH+sUa2VupBUB
7ANQaFeRcO9mps1k2LHTFqGNEbdhR4zc64IYe5/7IeEihTWNy39YGA4jFtC6BVe8
1UhA+kiB2Frl6Uv7OgV00nHBaSRjg++52OxqVZ+nNEaSDBLoA2NEprYIiLtCnap/
+UGPHo3KdpmGCZgctbW1sqQ2jqaD/0OaiNx/YiVefUYyDIydG7zzGTTlIogaKo1C
D6EK21kMyvOx0hLVA7rL1tjTQEmAPOyb/v1a6ztRXkUCAwEAAaNXMFUwDgYDVR0P
AQH/BAQDAgWgMAkGA1UdEwQCMAAwFwYDVR0RBBAwDoIMYjY3YmQ0NjQ2NDdiMB8G
A1UdIwQYMBaAFAr5Nj5cQlYt6Th8WBB8IRDKTyvVMA0GCSqGSIb3DQEBCwUAA4IC
AQAaE9qUGFs/hfx+x2T8FjiQHahdG+5oTTt0yQgE9XfZ6WHxGwIhRSGZJqXKkmKS
ak993AmU+0lAFcuhdgV605/YsL5J+HvDXvbWi44jR2NvtfM3QeXZ4IpjnwJRyz4w
5Jn0NtDytTgrfq9Lmw9+q4TpKpYU9QVgbOWD5sSLZ+y7PA29lqhkGuM/4U/OZqSx
6khriZnkwEp0ELc9//UR8c25NSZSgYhmRCiozEzcRZfARFvrO7SNVy/qPqbY0GPN
tGI9+FVRs2qUaf5awPGXMgo4Ow/zsz4qWQC2ke1zmbE/+sCDdDHi39qWSKMiI/Vr
dnmIB4+mjrx3RPAj2Q9QU+BdQKiIrfN+SHlBhRXYtUuyJv1bQfrj7BS1zCrsFJ0j
JgJF9lbLG7YIaWQEgB33W2/PGCCXnjwY3VZVrIzLaa0fRhq6rDtGjdZlIssx9HJ5
d/6HJuuQdSiTdp0HrYfR/7E3HzH5l68st7IFblWI3h2bToUJ131OMkie9zctxtNn
8rW4ii4E0Llni2ODuoatiojavk4wv9DavVcQXxoN9l2a3Iv0pCrNiBvMBxngI2wu
5RsNK4oYHKVQRLiS58Tm0k1114NL7gNv5n08md8Ciq0+NAyhSvZGOFBOU0RIfVOc
4q0GrPHAOLJLkPkyckJKYCWqbgxm3Mc6f66fwADm2ltTrQ==
-----END CERTIFICATE-----
